target datalayout = "e-m:e-p270:32:32-p271:32:32-p272:64:64-i64:64-i128:128-f80:128-n8:16:32:64-S128"
target triple = "x86_64-unknown-linux-gnu"

%class.doc_manager = type { %class.tbv_manager, ptr, %class.small_object_allocator }
%class.tbv_manager = type { %class.fixed_bit_vector_manager, %class.ptr_vector }
%class.fixed_bit_vector_manager = type <{ %class.small_object_allocator, i32, i32, i32, i32, %class.fixed_bit_vector, [4 x i8] }>
%class.fixed_bit_vector = type { [1 x i32] }
%class.ptr_vector = type { %class.vector }
%class.vector = type { ptr }
%class.small_object_allocator = type { [32 x ptr], [32 x ptr], i64 }
%class.doc = type { ptr, %class.union_bvec }
%class.union_bvec = type { %class.buffer }
%class.buffer = type { ptr, i32, i32, [8 x %"union.std::aligned_storage<8, 8>::type"] }
%"union.std::aligned_storage<8, 8>::type" = type { [8 x i8] }

; Function Attrs: mustprogress nounwind uwtable
define linkonce_odr hidden noundef nonnull align 8 dereferenceable(8) ptr @_ZNK6bufferIP3tbvLb0ELj8EEixEj(ptr noundef nonnull align 8 dereferenceable(80) %this, i32 noundef %idx) #5 comdat align 2 {
entry:
  %this.addr = alloca ptr, align 8
  %idx.addr = alloca i32, align 4
  store ptr %this, ptr %this.addr, align 8
  store i32 %idx, ptr %idx.addr, align 4
  %this1 = load ptr, ptr %this.addr, align 8
  %m_buffer = getelementptr inbounds %class.buffer, ptr %this1, i32 0, i32 0
  %0 = load ptr, ptr %m_buffer, align 8
  %1 = load i32, ptr %idx.addr, align 4
  %idxprom = zext i32 %1 to i64
  %arrayidx = getelementptr inbounds ptr, ptr %0, i64 %idxprom
  ret ptr %arrayidx
}

; Function Attrs: mustprogress nounwind uwtable
define linkonce_odr hidden noundef i32 @_ZNK6bufferIP3tbvLb0ELj8EE4sizeEv(ptr noundef nonnull align 8 dereferenceable(80) %this) #5 comdat align 2 {
entry:
  %this.addr = alloca ptr, align 8
  store ptr %this, ptr %this.addr, align 8
  %this1 = load ptr, ptr %this.addr, align 8
  %m_pos = getelementptr inbounds %class.buffer, ptr %this1, i32 0, i32 1
  %0 = load i32, ptr %m_pos, align 8
  ret i32 %0
}

; Function Attrs: mustprogress uwtable
define linkonce_odr hidden noundef nonnull align 4 dereferenceable(4) ptr @_ZNK10union_bvecI11tbv_manager3tbvEixEj(ptr noundef nonnull align 8 dereferenceable(80) %this, i32 noundef %idx) #4 comdat align 2 {
entry:
  %this.addr = alloca ptr, align 8
  %idx.addr = alloca i32, align 4
  store ptr %this, ptr %this.addr, align 8
  store i32 %idx, ptr %idx.addr, align 4
  %this1 = load ptr, ptr %this.addr, align 8
  %m_elems = getelementptr inbounds %class.union_bvec, ptr %this1, i32 0, i32 0
  %0 = load i32, ptr %idx.addr, align 4
  %call = call noundef nonnull align 8 dereferenceable(8) ptr @_ZNK6bufferIP3tbvLb0ELj8EEixEj(ptr noundef nonnull align 8 dereferenceable(80) %m_elems, i32 noundef %0)
  %1 = load ptr, ptr %call, align 8
  ret ptr %1
}

; Function Attrs: mustprogress uwtable
define linkonce_odr hidden noundef i32 @_ZNK10union_bvecI11tbv_manager3tbvE4sizeEv(ptr noundef nonnull align 8 dereferenceable(80) %this) #4 comdat align 2 {
entry:
  %this.addr = alloca ptr, align 8
  store ptr %this, ptr %this.addr, align 8
  %this1 = load ptr, ptr %this.addr, align 8
  %m_elems = getelementptr inbounds %class.union_bvec, ptr %this1, i32 0, i32 0
  %call = call noundef i32 @_ZNK6bufferIP3tbvLb0ELj8EE4sizeEv(ptr noundef nonnull align 8 dereferenceable(80) %m_elems)
  ret i32 %call
}

; Function Attrs: mustprogress nounwind uwtable
define linkonce_odr hidden noundef nonnull align 8 dereferenceable(80) ptr @_ZNK3doc3negEv(ptr noundef nonnull align 8 dereferenceable(88) %this) #5 comdat align 2 {
entry:
  %this.addr = alloca ptr, align 8
  store ptr %this, ptr %this.addr, align 8
  %this1 = load ptr, ptr %this.addr, align 8
  %m_neg = getelementptr inbounds %class.doc, ptr %this1, i32 0, i32 1
  ret ptr %m_neg
}

; Function Attrs: mustprogress nounwind uwtable
define linkonce_odr hidden noundef nonnull align 4 dereferenceable(4) ptr @_ZNK3doc3posEv(ptr noundef nonnull align 8 dereferenceable(88) %this) #5 comdat align 2 {
entry:
  %this.addr = alloca ptr, align 8
  store ptr %this, ptr %this.addr, align 8
  %this1 = load ptr, ptr %this.addr, align 8
  %m_pos = getelementptr inbounds %class.doc, ptr %this1, i32 0, i32 0
  %0 = load ptr, ptr %m_pos, align 8
  ret ptr %0
}

; Function Attrs: mustprogress uwtable
define hidden noundef zeroext i1 @_ZNK11doc_manager8containsERK3docRK7svectorIjjES2_S6_(ptr noundef nonnull align 8 dereferenceable(1080) %this, ptr noundef nonnull align 8 dereferenceable(88) %a, ptr noundef nonnull align 8 dereferenceable(8) %colsa, ptr noundef nonnull align 8 dereferenceable(88) %b, ptr noundef nonnull align 8 dereferenceable(8) %colsb) #4 align 2 {
entry:
  %retval = alloca i1, align 1
  %this.addr = alloca ptr, align 8
  %a.addr = alloca ptr, align 8
  %colsa.addr = alloca ptr, align 8
  %b.addr = alloca ptr, align 8
  %colsb.addr = alloca ptr, align 8
  %i = alloca i32, align 4
  %found = alloca i8, align 1
  %j = alloca i32, align 4
  store ptr %this, ptr %this.addr, align 8
  store ptr %a, ptr %a.addr, align 8
  store ptr %colsa, ptr %colsa.addr, align 8
  store ptr %b, ptr %b.addr, align 8
  store ptr %colsb, ptr %colsb.addr, align 8
  %this1 = load ptr, ptr %this.addr, align 8
  %m = getelementptr inbounds %class.doc_manager, ptr %this1, i32 0, i32 0
  %0 = load ptr, ptr %a.addr, align 8
  %call = call noundef nonnull align 4 dereferenceable(4) ptr @_ZNK3doc3posEv(ptr noundef nonnull align 8 dereferenceable(88) %0)
  %1 = load ptr, ptr %colsa.addr, align 8
  %2 = load ptr, ptr %b.addr, align 8
  %call2 = call noundef nonnull align 4 dereferenceable(4) ptr @_ZNK3doc3posEv(ptr noundef nonnull align 8 dereferenceable(88) %2)
  %3 = load ptr, ptr %colsb.addr, align 8
  %call3 = call noundef zeroext i1 @_ZNK11tbv_manager8containsERK3tbvRK7svectorIjjES2_S6_(ptr noundef nonnull align 8 dereferenceable(552) %m, ptr noundef nonnull align 4 dereferenceable(4) %call, ptr noundef nonnull align 8 dereferenceable(8) %1, ptr noundef nonnull align 4 dereferenceable(4) %call2, ptr noundef nonnull align 8 dereferenceable(8) %3)
  br i1 %call3, label %if.end, label %if.then

if.then:                                          ; preds = %entry
  store i1 false, ptr %retval, align 1
  br label %return

if.end:                                           ; preds = %entry
  store i32 0, ptr %i, align 4
  br label %for.cond

for.cond:                                         ; preds = %for.inc20, %if.end
  %4 = load i32, ptr %i, align 4
  %5 = load ptr, ptr %a.addr, align 8
  %call4 = call noundef nonnull align 8 dereferenceable(80) ptr @_ZNK3doc3negEv(ptr noundef nonnull align 8 dereferenceable(88) %5)
  %call5 = call noundef i32 @_ZNK10union_bvecI11tbv_manager3tbvE4sizeEv(ptr noundef nonnull align 8 dereferenceable(80) %call4)
  %cmp = icmp ult i32 %4, %call5
  br i1 %cmp, label %for.body, label %for.end22

for.body:                                         ; preds = %for.cond
  store i8 0, ptr %found, align 1
  store i32 0, ptr %j, align 4
  br label %for.cond6

for.cond6:                                        ; preds = %for.inc, %for.body
  %6 = load i8, ptr %found, align 1
  %tobool = trunc i8 %6 to i1
  br i1 %tobool, label %land.end, label %land.rhs

land.rhs:                                         ; preds = %for.cond6
  %7 = load i32, ptr %j, align 4
  %8 = load ptr, ptr %b.addr, align 8
  %call7 = call noundef nonnull align 8 dereferenceable(80) ptr @_ZNK3doc3negEv(ptr noundef nonnull align 8 dereferenceable(88) %8)
  %call8 = call noundef i32 @_ZNK10union_bvecI11tbv_manager3tbvE4sizeEv(ptr noundef nonnull align 8 dereferenceable(80) %call7)
  %cmp9 = icmp ult i32 %7, %call8
  br label %land.end

land.end:                                         ; preds = %land.rhs, %for.cond6
  %9 = phi i1 [ false, %for.cond6 ], [ %cmp9, %land.rhs ]
  br i1 %9, label %for.body10, label %for.end

for.body10:                                       ; preds = %land.end
  %m11 = getelementptr inbounds %class.doc_manager, ptr %this1, i32 0, i32 0
  %10 = load ptr, ptr %b.addr, align 8
  %call12 = call noundef nonnull align 8 dereferenceable(80) ptr @_ZNK3doc3negEv(ptr noundef nonnull align 8 dereferenceable(88) %10)
  %11 = load i32, ptr %j, align 4
  %call13 = call noundef nonnull align 4 dereferenceable(4) ptr @_ZNK10union_bvecI11tbv_manager3tbvEixEj(ptr noundef nonnull align 8 dereferenceable(80) %call12, i32 noundef %11)
  %12 = load ptr, ptr %colsb.addr, align 8
  %13 = load ptr, ptr %a.addr, align 8
  %call14 = call noundef nonnull align 8 dereferenceable(80) ptr @_ZNK3doc3negEv(ptr noundef nonnull align 8 dereferenceable(88) %13)
  %14 = load i32, ptr %i, align 4
  %call15 = call noundef nonnull align 4 dereferenceable(4) ptr @_ZNK10union_bvecI11tbv_manager3tbvEixEj(ptr noundef nonnull align 8 dereferenceable(80) %call14, i32 noundef %14)
  %15 = load ptr, ptr %colsa.addr, align 8
  %call16 = call noundef zeroext i1 @_ZNK11tbv_manager8containsERK3tbvRK7svectorIjjES2_S6_(ptr noundef nonnull align 8 dereferenceable(552) %m11, ptr noundef nonnull align 4 dereferenceable(4) %call13, ptr noundef nonnull align 8 dereferenceable(8) %12, ptr noundef nonnull align 4 dereferenceable(4) %call15, ptr noundef nonnull align 8 dereferenceable(8) %15)
  %frombool = zext i1 %call16 to i8
  store i8 %frombool, ptr %found, align 1
  br label %for.inc

for.inc:                                          ; preds = %for.body10
  %16 = load i32, ptr %j, align 4
  %inc = add i32 %16, 1
  store i32 %inc, ptr %j, align 4
  br label %for.cond6, !llvm.loop !47

for.end:                                          ; preds = %land.end
  %17 = load i8, ptr %found, align 1
  %tobool17 = trunc i8 %17 to i1
  br i1 %tobool17, label %if.end19, label %if.then18

if.then18:                                        ; preds = %for.end
  store i1 false, ptr %retval, align 1
  br label %return

if.end19:                                         ; preds = %for.end
  br label %for.inc20

for.inc20:                                        ; preds = %if.end19
  %18 = load i32, ptr %i, align 4
  %inc21 = add i32 %18, 1
  store i32 %inc21, ptr %i, align 4
  br label %for.cond, !llvm.loop !48

for.end22:                                        ; preds = %for.cond
  store i1 true, ptr %retval, align 1
  br label %return

return:                                           ; preds = %for.end22, %if.then18, %if.then
  %19 = load i1, ptr %retval, align 1
  ret i1 %19
}