; Function Attrs: mustprogress uwtable
define hidden noundef zeroext i1 @_ZNK11doc_manager8containsERK3docRK7svectorIjjES2_S6_(ptr noundef nonnull align 8 dereferenceable(1080) %this, ptr nocapture noundef nonnull readonly align 8 dereferenceable(88) %a, ptr noundef nonnull align 8 dereferenceable(8) %colsa, ptr nocapture noundef nonnull readonly align 8 dereferenceable(88) %b, ptr noundef nonnull align 8 dereferenceable(8) %colsb) local_unnamed_addr #3 align 2 {
entry:
  %0 = load ptr, ptr %a, align 8
  %1 = load ptr, ptr %b, align 8
  %call3 = tail call noundef zeroext i1 @_ZNK11tbv_manager8containsERK3tbvRK7svectorIjjES2_S6_(ptr noundef nonnull align 8 dereferenceable(552) %this, ptr noundef nonnull align 4 dereferenceable(4) %0, ptr noundef nonnull align 8 dereferenceable(8) %colsa, ptr noundef nonnull align 4 dereferenceable(4) %1, ptr noundef nonnull align 8 dereferenceable(8) %colsb)
  br i1 %call3, label %for.cond.preheader, label %return

for.cond.preheader:                               ; preds = %entry
  %m_neg.i = getelementptr inbounds i8, ptr %a, i64 8
  %m_pos.i.i = getelementptr inbounds i8, ptr %a, i64 16
  %2 = load i32, ptr %m_pos.i.i, align 8
  %cmp20.not = icmp eq i32 %2, 0
  br i1 %cmp20.not, label %return, label %for.cond6.preheader.lr.ph

for.cond6.preheader.lr.ph:                        ; preds = %for.cond.preheader
  %m_pos.i.i13 = getelementptr inbounds i8, ptr %b, i64 16
  %m_neg.i12 = getelementptr inbounds i8, ptr %b, i64 8
  br label %for.cond6.preheader

for.cond6.preheader:                              ; preds = %for.cond6.preheader.lr.ph, %for.inc20
  %indvars.iv24 = phi i64 [ 0, %for.cond6.preheader.lr.ph ], [ %indvars.iv.next25, %for.inc20 ]
  br label %land.rhs

land.rhs:                                         ; preds = %for.cond6.preheader, %for.body10
  %indvars.iv = phi i64 [ 0, %for.cond6.preheader ], [ %indvars.iv.next, %for.body10 ]
  %3 = load i32, ptr %m_pos.i.i13, align 8
  %4 = zext i32 %3 to i64
  %cmp9 = icmp ult i64 %indvars.iv, %4
  br i1 %cmp9, label %for.body10, label %return

for.body10:                                       ; preds = %land.rhs
  %5 = load ptr, ptr %m_neg.i12, align 8
  %arrayidx.i.i = getelementptr inbounds ptr, ptr %5, i64 %indvars.iv
  %6 = load ptr, ptr %arrayidx.i.i, align 8
  %7 = load ptr, ptr %m_neg.i, align 8
  %arrayidx.i.i17 = getelementptr inbounds ptr, ptr %7, i64 %indvars.iv24
  %8 = load ptr, ptr %arrayidx.i.i17, align 8
  %call16 = tail call noundef zeroext i1 @_ZNK11tbv_manager8containsERK3tbvRK7svectorIjjES2_S6_(ptr noundef nonnull align 8 dereferenceable(552) %this, ptr noundef nonnull align 4 dereferenceable(4) %6, ptr noundef nonnull align 8 dereferenceable(8) %colsb, ptr noundef nonnull align 4 dereferenceable(4) %8, ptr noundef nonnull align 8 dereferenceable(8) %colsa)
  %indvars.iv.next = add nuw nsw i64 %indvars.iv, 1
  br i1 %call16, label %for.inc20, label %land.rhs, !llvm.loop !53

for.inc20:                                        ; preds = %for.body10
  %indvars.iv.next25 = add nuw nsw i64 %indvars.iv24, 1
  %9 = load i32, ptr %m_pos.i.i, align 8
  %10 = zext i32 %9 to i64
  %cmp = icmp ult i64 %indvars.iv.next25, %10
  br i1 %cmp, label %for.cond6.preheader, label %return, !llvm.loop !54

return:                                           ; preds = %for.inc20, %land.rhs, %for.cond.preheader, %entry
  %retval.0 = phi i1 [ false, %entry ], [ true, %for.cond.preheader ], [ false, %land.rhs ], [ true, %for.inc20 ]
  ret i1 %retval.0
}